; Function Attrs: nounwind uwtable
define internal i32 @hmac_init(ptr noundef %0, ptr noundef %1, i64 noundef %2, ptr noundef %3) #0 {
  %5 = tail call i32 @ossl_prov_is_running() #7
  %.not = icmp eq i32 %5, 0
  br i1 %.not, label %hmac_setkey.exit, label %6

6:                                                ; preds = %4
  %7 = tail call i32 @hmac_set_ctx_params(ptr noundef %0, ptr noundef %3)
  %.not9 = icmp eq i32 %7, 0
  br i1 %.not9, label %hmac_setkey.exit, label %8

8:                                                ; preds = %6
  %.not10 = icmp eq ptr %1, null
  br i1 %.not10, label %28, label %9

9:                                                ; preds = %8
  %10 = getelementptr inbounds nuw i8, ptr %0, i64 40
  %11 = load ptr, ptr %10, align 8, !tbaa !25
  %.not.i = icmp eq ptr %11, null
  br i1 %.not.i, label %15, label %12

12:                                               ; preds = %9
  %13 = getelementptr inbounds nuw i8, ptr %0, i64 48
  %14 = load i64, ptr %13, align 8, !tbaa !26
  tail call void @CRYPTO_secure_clear_free(ptr noundef nonnull %11, i64 noundef %14, ptr noundef nonnull @.str, i32 noundef 181) #7
  br label %15

15:                                               ; preds = %12, %9
  %16 = tail call i64 @llvm.umax.i64(i64 %2, i64 1)
  %17 = tail call noalias ptr @CRYPTO_secure_malloc(i64 noundef %16, ptr noundef nonnull @.str, i32 noundef 183) #7
  store ptr %17, ptr %10, align 8, !tbaa !25
  %18 = icmp eq ptr %17, null
  br i1 %18, label %hmac_setkey.exit, label %19

19:                                               ; preds = %15
  tail call void @llvm.memcpy.p0.p0.i64(ptr nonnull align 1 %17, ptr nonnull align 1 %1, i64 %2, i1 false)
  %20 = getelementptr inbounds nuw i8, ptr %0, i64 48
  store i64 %2, ptr %20, align 8, !tbaa !26
  %21 = getelementptr inbounds nuw i8, ptr %0, i64 16
  %22 = tail call ptr @ossl_prov_digest_md(ptr noundef nonnull %21) #7
  %23 = getelementptr inbounds nuw i8, ptr %0, i64 8
  %24 = load ptr, ptr %23, align 8, !tbaa !3
  %25 = trunc i64 %2 to i32
  %26 = tail call ptr @ossl_prov_digest_engine(ptr noundef nonnull %21) #7
  %27 = tail call i32 @HMAC_Init_ex(ptr noundef %24, ptr noundef nonnull %1, i32 noundef %25, ptr noundef %22, ptr noundef %26) #7
  br label %hmac_setkey.exit

28:                                               ; preds = %8
  %29 = getelementptr inbounds nuw i8, ptr %0, i64 8
  %30 = load ptr, ptr %29, align 8, !tbaa !3
  %31 = tail call i32 @HMAC_Init_ex(ptr noundef %30, ptr noundef null, i32 noundef 0, ptr noundef null, ptr noundef null) #7
  br label %hmac_setkey.exit

hmac_setkey.exit:                                 ; preds = %19, %15, %4, %6, %28
  %.0 = phi i32 [ %31, %28 ], [ 0, %6 ], [ 0, %4 ], [ %27, %19 ], [ 0, %15 ]
  ret i32 %.0
}